target datalayout = "e-m:e-p270:32:32-p271:32:32-p272:64:64-i64:64-i128:128-f80:128-n8:16:32:64-S128"
target triple = "x86_64-pc-linux-gnu"

%struct.archive_entry_linkresolver = type { ptr, ptr, i64, i64, i32 }

; Function Attrs: nounwind uwtable
define dso_local ptr @archive_entry_linkresolver_new() #0 {
  %1 = alloca ptr, align 8
  %2 = alloca ptr, align 8
  %3 = alloca i32, align 4
  call void @llvm.lifetime.start.p0(i64 8, ptr %2) #5
  %4 = call noalias ptr @calloc(i64 noundef 1, i64 noundef 40) #6
  store ptr %4, ptr %2, align 8, !tbaa !4
  %5 = load ptr, ptr %2, align 8, !tbaa !4
  %6 = icmp eq ptr %5, null
  br i1 %6, label %7, label %8

7:                                                ; preds = %0
  store ptr null, ptr %1, align 8
  store i32 1, ptr %3, align 4
  br label %25

8:                                                ; preds = %0
  %9 = load ptr, ptr %2, align 8, !tbaa !4
  %10 = getelementptr inbounds nuw %struct.archive_entry_linkresolver, ptr %9, i32 0, i32 3
  store i64 1024, ptr %10, align 8, !tbaa !9
  %11 = load ptr, ptr %2, align 8, !tbaa !4
  %12 = getelementptr inbounds nuw %struct.archive_entry_linkresolver, ptr %11, i32 0, i32 3
  %13 = load i64, ptr %12, align 8, !tbaa !9
  %14 = call noalias ptr @calloc(i64 noundef %13, i64 noundef 8) #6
  %15 = load ptr, ptr %2, align 8, !tbaa !4
  %16 = getelementptr inbounds nuw %struct.archive_entry_linkresolver, ptr %15, i32 0, i32 0
  store ptr %14, ptr %16, align 8, !tbaa !15
  %17 = load ptr, ptr %2, align 8, !tbaa !4
  %18 = getelementptr inbounds nuw %struct.archive_entry_linkresolver, ptr %17, i32 0, i32 0
  %19 = load ptr, ptr %18, align 8, !tbaa !15
  %20 = icmp eq ptr %19, null
  br i1 %20, label %21, label %23

21:                                               ; preds = %8
  %22 = load ptr, ptr %2, align 8, !tbaa !4
  call void @free(ptr noundef %22) #5
  store ptr null, ptr %1, align 8
  store i32 1, ptr %3, align 4
  br label %25

23:                                               ; preds = %8
  %24 = load ptr, ptr %2, align 8, !tbaa !4
  store ptr %24, ptr %1, align 8
  store i32 1, ptr %3, align 4
  br label %25

25:                                               ; preds = %23, %21, %7
  call void @llvm.lifetime.end.p0(i64 8, ptr %2) #5
  %26 = load ptr, ptr %1, align 8
  ret ptr %26
}