; Function Attrs: mustprogress nounwind willreturn memory(readwrite, argmem: none) uwtable
define dso_local noalias noundef ptr @archive_entry_linkresolver_new() local_unnamed_addr #0 {
  %1 = tail call noalias dereferenceable_or_null(40) ptr @calloc(i64 noundef 1, i64 noundef 40) #6
  %2 = icmp eq ptr %1, null
  br i1 %2, label %8, label %3

3:                                                ; preds = %0
  %4 = getelementptr inbounds nuw i8, ptr %1, i64 24
  store i64 1024, ptr %4, align 8, !tbaa !4
  %5 = tail call noalias dereferenceable_or_null(8192) ptr @calloc(i64 noundef 1024, i64 noundef 8) #6
  store ptr %5, ptr %1, align 8, !tbaa !13
  %6 = icmp eq ptr %5, null
  br i1 %6, label %7, label %8

7:                                                ; preds = %3
  tail call void @free(ptr noundef nonnull %1) #7
  br label %8

8:                                                ; preds = %3, %0, %7
  %.0 = phi ptr [ null, %7 ], [ null, %0 ], [ %1, %3 ]
  ret ptr %.0
}